target datalayout = "e-m:e-p270:32:32-p271:32:32-p272:64:64-i64:64-i128:128-f80:128-n8:16:32:64-S128"
target triple = "x86_64-pc-linux-gnu"

%struct.P9Req = type { ptr, ptr, i16, i64, i32, i64, i64, i64, i32 }

@alloc = internal global ptr null, align 8
@.str = private unnamed_addr constant [46 x i8] c"../qemu/tests/qtest/libqos/virtio-9p-client.c\00", align 1
@.str.10 = private unnamed_addr constant [3 x i8] c"==\00", align 1
@__func__.v9fs_rversion = private unnamed_addr constant [14 x i8] c"v9fs_rversion\00", align 1
@.str.22 = private unnamed_addr constant [21 x i8] c"msize == P9_MAX_SIZE\00", align 1

; Function Attrs: inlinehint nounwind sspstrong uwtable
define internal void @le32_to_cpus(ptr noundef %0) #3 {
  %2 = alloca ptr, align 8
  store ptr %0, ptr %2, align 8
  ret void
}

; Function Attrs: nounwind sspstrong uwtable
define dso_local void @v9fs_memread(ptr noundef %0, ptr noundef %1, i64 noundef %2) #0 {
  %4 = alloca ptr, align 8
  %5 = alloca ptr, align 8
  %6 = alloca i64, align 8
  store ptr %0, ptr %4, align 8
  store ptr %1, ptr %5, align 8
  store i64 %2, ptr %6, align 8
  %7 = load ptr, ptr %4, align 8
  %8 = getelementptr inbounds nuw %struct.P9Req, ptr %7, i32 0, i32 0
  %9 = load ptr, ptr %8, align 8
  %10 = load ptr, ptr %4, align 8
  %11 = getelementptr inbounds nuw %struct.P9Req, ptr %10, i32 0, i32 5
  %12 = load i64, ptr %11, align 8
  %13 = load ptr, ptr %4, align 8
  %14 = getelementptr inbounds nuw %struct.P9Req, ptr %13, i32 0, i32 7
  %15 = load i64, ptr %14, align 8
  %16 = add i64 %12, %15
  %17 = load ptr, ptr %5, align 8
  %18 = load i64, ptr %6, align 8
  call void @qtest_memread(ptr noundef %9, i64 noundef %16, ptr noundef %17, i64 noundef %18)
  %19 = load i64, ptr %6, align 8
  %20 = load ptr, ptr %4, align 8
  %21 = getelementptr inbounds nuw %struct.P9Req, ptr %20, i32 0, i32 7
  %22 = load i64, ptr %21, align 8
  %23 = add i64 %22, %19
  store i64 %23, ptr %21, align 8
  ret void
}

; Function Attrs: nounwind sspstrong uwtable
define dso_local void @v9fs_req_free(ptr noundef %0) #0 {
  %2 = alloca ptr, align 8
  store ptr %0, ptr %2, align 8
  %3 = load ptr, ptr @alloc, align 8
  %4 = load ptr, ptr %2, align 8
  %5 = getelementptr inbounds nuw %struct.P9Req, ptr %4, i32 0, i32 3
  %6 = load i64, ptr %5, align 8
  call void @guest_free(ptr noundef %3, i64 noundef %6)
  %7 = load ptr, ptr @alloc, align 8
  %8 = load ptr, ptr %2, align 8
  %9 = getelementptr inbounds nuw %struct.P9Req, ptr %8, i32 0, i32 5
  %10 = load i64, ptr %9, align 8
  call void @guest_free(ptr noundef %7, i64 noundef %10)
  %11 = load ptr, ptr %2, align 8
  call void @g_free(ptr noundef %11)
  ret void
}

; Function Attrs: nounwind sspstrong uwtable
define dso_local void @v9fs_uint32_read(ptr noundef %0, ptr noundef %1) #0 {
  %3 = alloca ptr, align 8
  %4 = alloca ptr, align 8
  store ptr %0, ptr %3, align 8
  store ptr %1, ptr %4, align 8
  %5 = load ptr, ptr %3, align 8
  %6 = load ptr, ptr %4, align 8
  call void @v9fs_memread(ptr noundef %5, ptr noundef %6, i64 noundef 4)
  %7 = load ptr, ptr %4, align 8
  call void @le32_to_cpus(ptr noundef %7)
  ret void
}

; Function Attrs: nounwind sspstrong uwtable
define dso_local void @v9fs_rversion(ptr noundef %0, ptr noundef %1, ptr noundef %2) #0 {
  %4 = alloca ptr, align 8
  %5 = alloca ptr, align 8
  %6 = alloca ptr, align 8
  %7 = alloca i32, align 4
  %8 = alloca i64, align 8
  %9 = alloca i64, align 8
  store ptr %0, ptr %4, align 8
  store ptr %1, ptr %5, align 8
  store ptr %2, ptr %6, align 8
  call void @llvm.lifetime.start.p0(i64 4, ptr %7) #13
  store i32 0, ptr %7, align 4, !annotation !4
  %10 = load ptr, ptr %4, align 8
  call void @v9fs_req_recv(ptr noundef %10, i8 noundef zeroext 101)
  %11 = load ptr, ptr %4, align 8
  call void @v9fs_uint32_read(ptr noundef %11, ptr noundef %7)
  br label %12

12:                                               ; preds = %3
  call void @llvm.lifetime.start.p0(i64 8, ptr %8) #13
  %13 = load i32, ptr %7, align 4
  %14 = zext i32 %13 to i64
  store i64 %14, ptr %8, align 8
  call void @llvm.lifetime.start.p0(i64 8, ptr %9) #13
  store i64 4096, ptr %9, align 8
  %15 = load i64, ptr %8, align 8
  %16 = load i64, ptr %9, align 8
  %17 = icmp eq i64 %15, %16
  br i1 %17, label %18, label %19

18:                                               ; preds = %12
  br label %24

19:                                               ; preds = %12
  %20 = load i64, ptr %8, align 8
  %21 = sitofp i64 %20 to x86_fp80
  %22 = load i64, ptr %9, align 8
  %23 = sitofp i64 %22 to x86_fp80
  call void @g_assertion_message_cmpnum(ptr noundef null, ptr noundef @.str, i32 noundef 353, ptr noundef @__func__.v9fs_rversion, ptr noundef @.str.22, x86_fp80 noundef %21, ptr noundef @.str.10, x86_fp80 noundef %23, i8 noundef signext 105)
  br label %24

24:                                               ; preds = %19, %18
  call void @llvm.lifetime.end.p0(i64 8, ptr %9) #13
  call void @llvm.lifetime.end.p0(i64 8, ptr %8) #13
  br label %25

25:                                               ; preds = %24
  br label %26

26:                                               ; preds = %25
  %27 = load ptr, ptr %5, align 8
  %28 = icmp ne ptr %27, null
  br i1 %28, label %32, label %29

29:                                               ; preds = %26
  %30 = load ptr, ptr %6, align 8
  %31 = icmp ne ptr %30, null
  br i1 %31, label %32, label %36

32:                                               ; preds = %29, %26
  %33 = load ptr, ptr %4, align 8
  %34 = load ptr, ptr %5, align 8
  %35 = load ptr, ptr %6, align 8
  call void @v9fs_string_read(ptr noundef %33, ptr noundef %34, ptr noundef %35)
  br label %36

36:                                               ; preds = %32, %29
  %37 = load ptr, ptr %4, align 8
  call void @v9fs_req_free(ptr noundef %37)
  call void @llvm.lifetime.end.p0(i64 4, ptr %7) #13
  ret void
}