; Function Attrs: nounwind sspstrong uwtable
define dso_local void @v9fs_rversion(ptr noundef %0, ptr noundef captures(address_is_null) %1, ptr noundef captures(address_is_null) %2) local_unnamed_addr #1 {
  %4 = alloca i32, align 4
  call void @llvm.lifetime.start.p0(i64 4, ptr nonnull %4) #14
  store i32 0, ptr %4, align 4, !annotation !4
  tail call void @v9fs_req_recv(ptr noundef %0, i8 noundef zeroext 101)
  %5 = load ptr, ptr %0, align 8
  %6 = getelementptr inbounds nuw i8, ptr %0, i64 40
  %7 = load i64, ptr %6, align 8
  %8 = getelementptr inbounds nuw i8, ptr %0, i64 56
  %9 = load i64, ptr %8, align 8
  %10 = add i64 %9, %7
  call void @qtest_memread(ptr noundef %5, i64 noundef %10, ptr noundef nonnull %4, i64 noundef 4) #14
  %11 = load i64, ptr %8, align 8
  %12 = add i64 %11, 4
  store i64 %12, ptr %8, align 8
  %13 = load i32, ptr %4, align 4
  %14 = icmp eq i32 %13, 4096
  br i1 %14, label %17, label %15

15:                                               ; preds = %3
  %16 = uitofp i32 %13 to x86_fp80
  call void @g_assertion_message_cmpnum(ptr noundef null, ptr noundef nonnull @.str, i32 noundef 353, ptr noundef nonnull @__func__.v9fs_rversion, ptr noundef nonnull @.str.22, x86_fp80 noundef %16, ptr noundef nonnull @.str.10, x86_fp80 noundef 0xK400B8000000000000000, i8 noundef signext 105) #14
  br label %17

17:                                               ; preds = %3, %15
  %18 = icmp ne ptr %1, null
  %19 = icmp ne ptr %2, null
  %or.cond = or i1 %18, %19
  br i1 %or.cond, label %20, label %21

20:                                               ; preds = %17
  call void @v9fs_string_read(ptr noundef nonnull %0, ptr noundef %1, ptr noundef %2)
  br label %21

21:                                               ; preds = %17, %20
  %22 = load ptr, ptr @alloc, align 8
  %23 = getelementptr inbounds nuw i8, ptr %0, i64 24
  %24 = load i64, ptr %23, align 8
  call void @guest_free(ptr noundef %22, i64 noundef %24) #14
  %25 = load ptr, ptr @alloc, align 8
  %26 = load i64, ptr %6, align 8
  call void @guest_free(ptr noundef %25, i64 noundef %26) #14
  call void @g_free(ptr noundef nonnull %0) #14
  call void @llvm.lifetime.end.p0(i64 4, ptr nonnull %4) #14
  ret void
}